Certificate:
    Data:
        Version: 3 (0x2)
        Serial Number: 4096 (0x1000)
        Signature Algorithm: sha256WithRSAEncryption
        Issuer: C=DE, ST=Hessen, L=Frankfurt, O=Sipp-test, OU=R&D, CN=sippuas/emailAddress=ipv6@cipv6.de
        Validity
            Not Before: Jul 22 10:18:47 2019 GMT
            Not After : Jul 21 10:18:47 2020 GMT
        Subject: C=DE, ST=Hessen, L=Frankfurt, O=R&D, OU=eng, CN=sippuac/emailAddress=ipv6@cipv6.de
        Subject Public Key Info:
            Public Key Algorithm: rsaEncryption
                RSA Public-Key: (2048 bit)
                Modulus:
                    00:9b:38:d8:54:03:6e:4b:62:94:14:96:26:8b:8f:
                    46:b3:c5:b0:2b:1f:cb:05:e7:4b:cd:7d:1e:3f:7e:
                    d4:de:83:6a:8d:7e:f4:f8:32:73:e0:62:da:f3:99:
                    87:4c:86:5b:4b:ce:c8:ae:b6:b8:6d:b5:6f:70:f3:
                    58:e4:a2:9e:84:7d:07:08:e4:b2:24:bd:2a:3d:db:
                    ff:e0:0b:c8:fe:aa:70:a3:4f:3f:a1:ff:ac:0a:99:
                    b4:d3:94:0c:a0:0b:9a:c6:0a:19:60:4c:e7:53:07:
                    f6:1a:bc:58:93:33:d6:d9:c3:3e:66:6e:cb:6f:a8:
                    c7:7a:1c:b8:34:ed:f3:5f:05:b1:24:62:1a:5d:8e:
                    5d:8b:01:47:e3:f1:47:24:7b:da:79:b3:5f:ce:41:
                    07:c6:4b:34:3d:e9:b4:49:a5:5a:e3:94:1d:4b:70:
                    59:b1:e3:96:23:6f:9e:36:05:6d:b2:fb:a7:41:1b:
                    e8:f6:62:e6:01:16:1c:58:73:e0:1f:77:67:e3:15:
                    10:c6:f3:03:cc:ac:76:6b:c4:77:5f:5d:a4:d1:0e:
                    ac:25:01:79:2d:d1:bc:cc:d2:35:0d:c3:e0:c8:2d:
                    f1:59:5a:03:44:d5:8e:74:98:eb:7d:d2:1a:03:37:
                    e6:24:38:60:6b:17:3d:e1:ae:8f:1a:cf:9f:85:ed:
                    1a:a9
                Exponent: 65537 (0x10001)
        X509v3 extensions:
            X509v3 Basic Constraints: 
                CA:FALSE
            Netscape Comment: 
                OpenSSL Generated Certificate
            X509v3 Subject Key Identifier: 
                40:EB:99:DD:4E:88:58:D8:65:F5:F5:F2:B2:33:89:89:53:83:48:52
            X509v3 Authority Key Identifier: 
                keyid:EA:B1:01:DA:E4:0E:7A:83:41:D4:72:01:35:49:E4:32:00:C2:06:01

    Signature Algorithm: sha256WithRSAEncryption
         d5:e8:b0:eb:9e:cc:b9:ce:de:cf:9a:a6:b3:c3:12:f1:83:fd:
         92:f4:89:a2:68:7c:76:aa:87:f1:3a:88:33:07:f9:5e:4b:d6:
         3c:90:d6:3c:06:62:e5:de:e9:63:5b:1c:bf:f7:ff:eb:22:77:
         4a:ea:ab:95:f8:fd:c2:44:91:bb:f1:51:7d:eb:c1:cb:ca:c2:
         0d:44:d0:02:d5:f8:46:f7:03:2b:52:96:7e:6b:54:8a:ee:fb:
         c5:4d:1c:2e:f9:b3:46:80:0d:e7:41:b3:82:a3:66:8f:0f:32:
         fc:f3:2f:35:b4:cf:c8:8b:0f:b4:c4:47:b1:ee:70:18:f5:16:
         8b:fe:fe:41:03:0e:cb:6f:f9:3a:38:37:8b:ea:c3:3d:d6:31:
         41:92:ef:c3:c1:74:a8:b6:f1:eb:a1:c5:0c:2a:8b:77:60:97:
         b9:59:cc:ef:87:f1:ef:4e:9d:76:1c:0e:39:a9:9a:cc:10:5d:
         47:70:0e:ad:eb:7a:9b:13:46:fb:1e:43:42:a4:99:18:17:27:
         88:20:35:3c:24:28:7b:35:6b:75:6a:bf:b2:06:81:9d:9e:e5:
         63:49:8c:d1:c5:4e:c2:25:18:9a:e2:09:4f:6f:d8:f4:9d:77:
         37:50:2c:59:6a:4b:9d:de:87:23:2f:5f:29:45:b7:cd:20:e1:
         5b:ad:35:24
-----BEGIN CERTIFICATE-----
MIID+jCCAuKgAwIBAgICEAAwDQYJKoZIhvcNAQELBQAwgYQxCzAJBgNVBAYTAkRF
MQ8wDQYDVQQIDAZIZXNzZW4xEjAQBgNVBAcMCUZyYW5rZnVydDESMBAGA1UECgwJ
U2lwcC10ZXN0MQwwCgYDVQQLDANSJkQxEDAOBgNVBAMMB3NpcHB1YXMxHDAaBgkq
hkiG9w0BCQEWDWlwdjZAY2lwdjYuZGUwHhcNMTkwNzIyMTAxODQ3WhcNMjAwNzIx
MTAxODQ3WjB+MQswCQYDVQQGEwJERTEPMA0GA1UECAwGSGVzc2VuMRIwEAYDVQQH
DAlGcmFua2Z1cnQxDDAKBgNVBAoMA1ImRDEMMAoGA1UECwwDZW5nMRAwDgYDVQQD
DAdzaXBwdWFjMRwwGgYJKoZIhvcNAQkBFg1pcHY2QGNpcHY2LmRlMIIBIjANBgkq
hkiG9w0BAQEFAAOCAQ8AMIIBCgKCAQEAmzjYVANuS2KUFJYmi49Gs8WwKx/LBedL
zX0eP37U3oNqjX70+DJz4GLa85mHTIZbS87Irra4bbVvcPNY5KKehH0HCOSyJL0q
Pdv/4AvI/qpwo08/of+sCpm005QMoAuaxgoZYEznUwf2GrxYkzPW2cM+Zm7Lb6jH
ehy4NO3zXwWxJGIaXY5diwFH4/FHJHvaebNfzkEHxks0Pem0SaVa45QdS3BZseOW
I2+eNgVtsvunQRvo9mLmARYcWHPgH3dn4xUQxvMDzKx2a8R3X12k0Q6sJQF5LdG8
zNI1DcPgyC3xWVoDRNWOdJjrfdIaAzfmJDhgaxc94a6PGs+fhe0aqQIDAQABo3sw
eTAJBgNVHRMEAjAAMCwGCWCGSAGG+EIBDQQfFh1PcGVuU1NMIEdlbmVyYXRlZCBD
ZXJ0aWZpY2F0ZTAdBgNVHQ4EFgQUQOuZ3U6IWNhl9fXysjOJiVODSFIwHwYDVR0j
BBgwFoAU6rEB2uQOeoNB1HIBNUnkMgDCBgEwDQYJKoZIhvcNAQELBQADggEBANXo
sOuezLnO3s+aprPDEvGD/ZL0iaJofHaqh/E6iDMH+V5L1jyQ1jwGYuXe6WNbHL/3
/+sid0rqq5X4/cJEkbvxUX3rwcvKwg1E0ALV+Eb3AytSln5rVIru+8VNHC75s0aA
DedBs4KjZo8PMvzzLzW0z8iLD7TER7HucBj1Fov+/kEDDstv+To4N4vqwz3WMUGS
78PBdKi28euhxQwqi3dgl7lZzO+H8e9OnXYcDjmpmswQXUdwDq3repsTRvseQ0Kk
mRgXJ4ggNTwkKHs1a3Vqv7IGgZ2e5WNJjNHFTsIlGJriCU9v2PSddzdQLFlqS53e
hyMvXylFt80g4VutNSQ=
-----END CERTIFICATE-----
